target datalayout = "e-m:e-p270:32:32-p271:32:32-p272:64:64-i64:64-i128:128-f80:128-n8:16:32:64-S128"
target triple = "x86_64-pc-linux-gnu"

%struct.jpeg_compress_struct = type { ptr, ptr, ptr, ptr, i32, i32, ptr, i32, i32, i32, i32, double, i32, i32, i32, ptr, [4 x ptr], [4 x ptr], [4 x ptr], [16 x i8], [16 x i8], [16 x i8], i32, ptr, i32, i32, i32, i32, i32, i32, i32, i32, i32, i8, i8, i8, i16, i16, i32, i32, i32, i32, i32, i32, i32, [4 x ptr], i32, i32, i32, [10 x i32], i32, i32, i32, i32, ptr, ptr, ptr, ptr, ptr, ptr, ptr, ptr, ptr, ptr, i32 }
%struct.phuff_entropy_encoder = type { %struct.jpeg_entropy_encoder, ptr, ptr, i32, ptr, i64, i64, i32, ptr, [4 x i32], i32, i32, i32, ptr, i32, i32, [4 x ptr], [4 x ptr] }
%struct.jpeg_entropy_encoder = type { ptr, ptr, ptr, ptr }
%struct.jpeg_component_info = type { i32, i32, i32, i32, i32, i32, i32, i32, i32, i32, i32, i32, i32, i32, i32, i32, i32, i32, i32, ptr, ptr }

; Function Attrs: nounwind uwtable
define internal void @finish_pass_gather_phuff(ptr noundef %0) #0 {
  %2 = alloca ptr, align 8
  %3 = alloca ptr, align 8
  %4 = alloca i32, align 4
  %5 = alloca i32, align 4
  %6 = alloca i32, align 4
  %7 = alloca ptr, align 8
  %8 = alloca ptr, align 8
  %9 = alloca [4 x i32], align 16
  store ptr %0, ptr %2, align 8, !tbaa !3
  call void @llvm.lifetime.start.p0(i64 8, ptr %3) #6
  %10 = load ptr, ptr %2, align 8, !tbaa !3
  %11 = getelementptr inbounds nuw %struct.jpeg_compress_struct, ptr %10, i32 0, i32 62
  %12 = load ptr, ptr %11, align 8, !tbaa !30
  store ptr %12, ptr %3, align 8, !tbaa !29
  call void @llvm.lifetime.start.p0(i64 4, ptr %4) #6
  call void @llvm.lifetime.start.p0(i64 4, ptr %5) #6
  call void @llvm.lifetime.start.p0(i64 4, ptr %6) #6
  call void @llvm.lifetime.start.p0(i64 8, ptr %7) #6
  call void @llvm.lifetime.start.p0(i64 8, ptr %8) #6
  call void @llvm.lifetime.start.p0(i64 16, ptr %9) #6
  %13 = load ptr, ptr %3, align 8, !tbaa !29
  call void @emit_eobrun(ptr noundef %13)
  %14 = load ptr, ptr %2, align 8, !tbaa !3
  %15 = getelementptr inbounds nuw %struct.jpeg_compress_struct, ptr %14, i32 0, i32 50
  %16 = load i32, ptr %15, align 4, !tbaa !43
  %17 = icmp eq i32 %16, 0
  %18 = zext i1 %17 to i32
  store i32 %18, ptr %4, align 4, !tbaa !35
  %19 = getelementptr inbounds [4 x i32], ptr %9, i64 0, i64 0
  call void @llvm.memset.p0.i64(ptr align 16 %19, i8 0, i64 16, i1 false)
  store i32 0, ptr %5, align 4, !tbaa !35
  br label %20

20:                                               ; preds = %92, %1
  %21 = load i32, ptr %5, align 4, !tbaa !35
  %22 = load ptr, ptr %2, align 8, !tbaa !3
  %23 = getelementptr inbounds nuw %struct.jpeg_compress_struct, ptr %22, i32 0, i32 44
  %24 = load i32, ptr %23, align 4, !tbaa !49
  %25 = icmp slt i32 %21, %24
  br i1 %25, label %26, label %95

26:                                               ; preds = %20
  %27 = load ptr, ptr %2, align 8, !tbaa !3
  %28 = getelementptr inbounds nuw %struct.jpeg_compress_struct, ptr %27, i32 0, i32 45
  %29 = load i32, ptr %5, align 4, !tbaa !35
  %30 = sext i32 %29 to i64
  %31 = getelementptr inbounds [4 x ptr], ptr %28, i64 0, i64 %30
  %32 = load ptr, ptr %31, align 8, !tbaa !29
  store ptr %32, ptr %7, align 8, !tbaa !29
  %33 = load i32, ptr %4, align 4, !tbaa !35
  %34 = icmp ne i32 %33, 0
  br i1 %34, label %35, label %45

35:                                               ; preds = %26
  %36 = load ptr, ptr %2, align 8, !tbaa !3
  %37 = getelementptr inbounds nuw %struct.jpeg_compress_struct, ptr %36, i32 0, i32 52
  %38 = load i32, ptr %37, align 4, !tbaa !44
  %39 = icmp ne i32 %38, 0
  br i1 %39, label %40, label %41

40:                                               ; preds = %35
  br label %92

41:                                               ; preds = %35
  %42 = load ptr, ptr %7, align 8, !tbaa !29
  %43 = getelementptr inbounds nuw %struct.jpeg_component_info, ptr %42, i32 0, i32 5
  %44 = load i32, ptr %43, align 4, !tbaa !50
  store i32 %44, ptr %6, align 4, !tbaa !35
  br label %49

45:                                               ; preds = %26
  %46 = load ptr, ptr %7, align 8, !tbaa !29
  %47 = getelementptr inbounds nuw %struct.jpeg_component_info, ptr %46, i32 0, i32 6
  %48 = load i32, ptr %47, align 8, !tbaa !52
  store i32 %48, ptr %6, align 4, !tbaa !35
  br label %49

49:                                               ; preds = %45, %41
  %50 = load i32, ptr %6, align 4, !tbaa !35
  %51 = sext i32 %50 to i64
  %52 = getelementptr inbounds [4 x i32], ptr %9, i64 0, i64 %51
  %53 = load i32, ptr %52, align 4, !tbaa !35
  %54 = icmp ne i32 %53, 0
  br i1 %54, label %91, label %55

55:                                               ; preds = %49
  %56 = load i32, ptr %4, align 4, !tbaa !35
  %57 = icmp ne i32 %56, 0
  br i1 %57, label %58, label %64

58:                                               ; preds = %55
  %59 = load ptr, ptr %2, align 8, !tbaa !3
  %60 = getelementptr inbounds nuw %struct.jpeg_compress_struct, ptr %59, i32 0, i32 17
  %61 = load i32, ptr %6, align 4, !tbaa !35
  %62 = sext i32 %61 to i64
  %63 = getelementptr inbounds [4 x ptr], ptr %60, i64 0, i64 %62
  store ptr %63, ptr %8, align 8, !tbaa !29
  br label %70

64:                                               ; preds = %55
  %65 = load ptr, ptr %2, align 8, !tbaa !3
  %66 = getelementptr inbounds nuw %struct.jpeg_compress_struct, ptr %65, i32 0, i32 18
  %67 = load i32, ptr %6, align 4, !tbaa !35
  %68 = sext i32 %67 to i64
  %69 = getelementptr inbounds [4 x ptr], ptr %66, i64 0, i64 %68
  store ptr %69, ptr %8, align 8, !tbaa !29
  br label %70

70:                                               ; preds = %64, %58
  %71 = load ptr, ptr %8, align 8, !tbaa !29
  %72 = load ptr, ptr %71, align 8, !tbaa !29
  %73 = icmp eq ptr %72, null
  br i1 %73, label %74, label %78

74:                                               ; preds = %70
  %75 = load ptr, ptr %2, align 8, !tbaa !3
  %76 = call ptr @jpeg_alloc_huff_table(ptr noundef %75)
  %77 = load ptr, ptr %8, align 8, !tbaa !29
  store ptr %76, ptr %77, align 8, !tbaa !29
  br label %78

78:                                               ; preds = %74, %70
  %79 = load ptr, ptr %2, align 8, !tbaa !3
  %80 = load ptr, ptr %8, align 8, !tbaa !29
  %81 = load ptr, ptr %80, align 8, !tbaa !29
  %82 = load ptr, ptr %3, align 8, !tbaa !29
  %83 = getelementptr inbounds nuw %struct.phuff_entropy_encoder, ptr %82, i32 0, i32 17
  %84 = load i32, ptr %6, align 4, !tbaa !35
  %85 = sext i32 %84 to i64
  %86 = getelementptr inbounds [4 x ptr], ptr %83, i64 0, i64 %85
  %87 = load ptr, ptr %86, align 8, !tbaa !36
  call void @jpeg_gen_optimal_table(ptr noundef %79, ptr noundef %81, ptr noundef %87)
  %88 = load i32, ptr %6, align 4, !tbaa !35
  %89 = sext i32 %88 to i64
  %90 = getelementptr inbounds [4 x i32], ptr %9, i64 0, i64 %89
  store i32 1, ptr %90, align 4, !tbaa !35
  br label %91

91:                                               ; preds = %78, %49
  br label %92

92:                                               ; preds = %91, %40
  %93 = load i32, ptr %5, align 4, !tbaa !35
  %94 = add nsw i32 %93, 1
  store i32 %94, ptr %5, align 4, !tbaa !35
  br label %20, !llvm.loop !95

95:                                               ; preds = %20
  call void @llvm.lifetime.end.p0(i64 16, ptr %9) #6
  call void @llvm.lifetime.end.p0(i64 8, ptr %8) #6
  call void @llvm.lifetime.end.p0(i64 8, ptr %7) #6
  call void @llvm.lifetime.end.p0(i64 4, ptr %6) #6
  call void @llvm.lifetime.end.p0(i64 4, ptr %5) #6
  call void @llvm.lifetime.end.p0(i64 4, ptr %4) #6
  call void @llvm.lifetime.end.p0(i64 8, ptr %3) #6
  ret void
}