; Function Attrs: nounwind uwtable
define internal void @finish_pass_gather_phuff(ptr noundef %0) #0 {
  %2 = alloca [4 x i32], align 16
  %3 = getelementptr inbounds nuw i8, ptr %0, i64 496
  %4 = load ptr, ptr %3, align 8, !tbaa !27
  call void @llvm.lifetime.start.p0(i64 16, ptr nonnull %2) #7
  tail call fastcc void @emit_eobrun(ptr noundef %4)
  %5 = getelementptr inbounds nuw i8, ptr %0, i64 412
  %6 = load i32, ptr %5, align 4, !tbaa !36
  call void @llvm.memset.p0.i64(ptr noundef nonnull align 16 dereferenceable(16) %2, i8 0, i64 16, i1 false)
  %7 = getelementptr inbounds nuw i8, ptr %0, i64 324
  %8 = load i32, ptr %7, align 4, !tbaa !42
  %9 = icmp sgt i32 %8, 0
  br i1 %9, label %.lr.ph, label %._crit_edge

.lr.ph:                                           ; preds = %1
  %10 = icmp eq i32 %6, 0
  %11 = getelementptr inbounds nuw i8, ptr %0, i64 328
  %12 = getelementptr inbounds nuw i8, ptr %0, i64 420
  %. = select i1 %10, i64 128, i64 160
  %13 = getelementptr inbounds nuw i8, ptr %0, i64 %.
  %14 = getelementptr inbounds nuw i8, ptr %4, i64 176
  br i1 %10, label %.lr.ph.split.us, label %.lr.ph.split

.lr.ph.split.us:                                  ; preds = %.lr.ph
  %15 = load i32, ptr %12, align 4, !tbaa !37
  %16 = icmp eq i32 %15, 0
  br i1 %16, label %.lr.ph.split.us.split, label %._crit_edge

.lr.ph.split.us.splitthread-pre-split:            ; preds = %35
  %.pr = load i32, ptr %12, align 4, !tbaa !37
  br label %.lr.ph.split.us.split

.lr.ph.split.us.split:                            ; preds = %.lr.ph.split.us, %.lr.ph.split.us.splitthread-pre-split
  %17 = phi i32 [ %.pr, %.lr.ph.split.us.splitthread-pre-split ], [ 0, %.lr.ph.split.us ]
  %18 = phi i32 [ %36, %.lr.ph.split.us.splitthread-pre-split ], [ %8, %.lr.ph.split.us ]
  %indvars.iv32 = phi i64 [ %indvars.iv.next33, %.lr.ph.split.us.splitthread-pre-split ], [ 0, %.lr.ph.split.us ]
  %.not.us = icmp eq i32 %17, 0
  br i1 %.not.us, label %19, label %35

19:                                               ; preds = %.lr.ph.split.us.split
  %20 = getelementptr inbounds nuw [4 x ptr], ptr %11, i64 0, i64 %indvars.iv32
  %21 = load ptr, ptr %20, align 8, !tbaa !43
  %22 = getelementptr inbounds nuw i8, ptr %21, i64 20
  %.026.us = load i32, ptr %22, align 4, !tbaa !44
  %23 = sext i32 %.026.us to i64
  %24 = getelementptr inbounds [4 x i32], ptr %2, i64 0, i64 %23
  %25 = load i32, ptr %24, align 4, !tbaa !44
  %.not27.us = icmp eq i32 %25, 0
  br i1 %.not27.us, label %26, label %35

26:                                               ; preds = %19
  %.0.us = getelementptr inbounds [4 x ptr], ptr %13, i64 0, i64 %23
  %27 = load ptr, ptr %.0.us, align 8, !tbaa !43
  %28 = icmp eq ptr %27, null
  br i1 %28, label %29, label %31

29:                                               ; preds = %26
  %30 = tail call ptr @jpeg_alloc_huff_table(ptr noundef nonnull %0) #7
  store ptr %30, ptr %.0.us, align 8, !tbaa !43
  br label %31

31:                                               ; preds = %29, %26
  %32 = phi ptr [ %30, %29 ], [ %27, %26 ]
  %33 = getelementptr inbounds [4 x ptr], ptr %14, i64 0, i64 %23
  %34 = load ptr, ptr %33, align 8, !tbaa !57
  tail call void @jpeg_gen_optimal_table(ptr noundef nonnull %0, ptr noundef %32, ptr noundef %34) #7
  store i32 1, ptr %24, align 4, !tbaa !44
  %.pre35 = load i32, ptr %7, align 4, !tbaa !42
  br label %35

35:                                               ; preds = %31, %19, %.lr.ph.split.us.split
  %36 = phi i32 [ %.pre35, %31 ], [ %18, %19 ], [ %18, %.lr.ph.split.us.split ]
  %indvars.iv.next33 = add nuw nsw i64 %indvars.iv32, 1
  %37 = sext i32 %36 to i64
  %38 = icmp slt i64 %indvars.iv.next33, %37
  br i1 %38, label %.lr.ph.split.us.splitthread-pre-split, label %._crit_edge, !llvm.loop !94

.lr.ph.split:                                     ; preds = %.lr.ph, %55
  %39 = phi i32 [ %56, %55 ], [ %8, %.lr.ph ]
  %indvars.iv = phi i64 [ %indvars.iv.next, %55 ], [ 0, %.lr.ph ]
  %40 = getelementptr inbounds nuw [4 x ptr], ptr %11, i64 0, i64 %indvars.iv
  %41 = load ptr, ptr %40, align 8, !tbaa !43
  %42 = getelementptr inbounds nuw i8, ptr %41, i64 24
  %.026 = load i32, ptr %42, align 4, !tbaa !44
  %43 = sext i32 %.026 to i64
  %44 = getelementptr inbounds [4 x i32], ptr %2, i64 0, i64 %43
  %45 = load i32, ptr %44, align 4, !tbaa !44
  %.not27 = icmp eq i32 %45, 0
  br i1 %.not27, label %46, label %55

46:                                               ; preds = %.lr.ph.split
  %.0 = getelementptr inbounds [4 x ptr], ptr %13, i64 0, i64 %43
  %47 = load ptr, ptr %.0, align 8, !tbaa !43
  %48 = icmp eq ptr %47, null
  br i1 %48, label %49, label %51

49:                                               ; preds = %46
  %50 = tail call ptr @jpeg_alloc_huff_table(ptr noundef nonnull %0) #7
  store ptr %50, ptr %.0, align 8, !tbaa !43
  br label %51

51:                                               ; preds = %49, %46
  %52 = phi ptr [ %50, %49 ], [ %47, %46 ]
  %53 = getelementptr inbounds [4 x ptr], ptr %14, i64 0, i64 %43
  %54 = load ptr, ptr %53, align 8, !tbaa !57
  tail call void @jpeg_gen_optimal_table(ptr noundef nonnull %0, ptr noundef %52, ptr noundef %54) #7
  store i32 1, ptr %44, align 4, !tbaa !44
  %.pre = load i32, ptr %7, align 4, !tbaa !42
  br label %55

55:                                               ; preds = %.lr.ph.split, %51
  %56 = phi i32 [ %39, %.lr.ph.split ], [ %.pre, %51 ]
  %indvars.iv.next = add nuw nsw i64 %indvars.iv, 1
  %57 = sext i32 %56 to i64
  %58 = icmp slt i64 %indvars.iv.next, %57
  br i1 %58, label %.lr.ph.split, label %._crit_edge, !llvm.loop !95

._crit_edge:                                      ; preds = %55, %35, %.lr.ph.split.us, %1
  call void @llvm.lifetime.end.p0(i64 16, ptr nonnull %2) #7
  ret void
}